target datalayout = "e-m:e-p270:32:32-p271:32:32-p272:64:64-i64:64-i128:128-f80:128-n8:16:32:64-S128"
target triple = "x86_64-pc-linux-gnu"

%"class.std::__cxx11::basic_string" = type { %"struct.std::__cxx11::basic_string<char>::_Alloc_hider", i64, %union.anon }
%"struct.std::__cxx11::basic_string<char>::_Alloc_hider" = type { ptr }
%union.anon = type { i64, [8 x i8] }
%"class.Json::Writer" = type { ptr }
%"class.std::vector" = type { %"struct.std::_Vector_base" }
%"struct.std::_Vector_base" = type { %"struct.std::_Vector_base<std::__cxx11::basic_string<char>, std::allocator<std::__cxx11::basic_string<char>>>::_Vector_impl" }
%"struct.std::_Vector_base<std::__cxx11::basic_string<char>, std::allocator<std::__cxx11::basic_string<char>>>::_Vector_impl" = type { %"struct.std::_Vector_base<std::__cxx11::basic_string<char>, std::allocator<std::__cxx11::basic_string<char>>>::_Vector_impl_data" }
%"struct.std::_Vector_base<std::__cxx11::basic_string<char>, std::allocator<std::__cxx11::basic_string<char>>>::_Vector_impl_data" = type { ptr, ptr, ptr }
%"class.Json::StyledWriter" = type <{ %"class.Json::Writer", %"class.std::vector", %"class.std::__cxx11::basic_string", %"class.std::__cxx11::basic_string", i32, i32, i8, [7 x i8] }>

; Function Attrs: mustprogress uwtable
define dso_local void @_ZN4Json12StyledWriter11writeIndentEv(ptr noundef nonnull align 8 dereferenceable(105) %0) #0 align 2 {
  %2 = alloca ptr, align 8
  %3 = alloca i8, align 1
  store ptr %0, ptr %2, align 8
  %4 = load ptr, ptr %2, align 8
  %5 = getelementptr inbounds %"class.Json::StyledWriter", ptr %4, i32 0, i32 2
  %6 = call noundef zeroext i1 @_ZNKSt7__cxx1112basic_stringIcSt11char_traitsIcESaIcEE5emptyEv(ptr noundef nonnull align 8 dereferenceable(32) %5) #9
  br i1 %6, label %26, label %7

7:                                                ; preds = %1
  %8 = getelementptr inbounds %"class.Json::StyledWriter", ptr %4, i32 0, i32 2
  %9 = getelementptr inbounds %"class.Json::StyledWriter", ptr %4, i32 0, i32 2
  %10 = call noundef i64 @_ZNKSt7__cxx1112basic_stringIcSt11char_traitsIcESaIcEE6lengthEv(ptr noundef nonnull align 8 dereferenceable(32) %9) #9
  %11 = sub i64 %10, 1
  %12 = call noundef nonnull align 1 dereferenceable(1) ptr @_ZNSt7__cxx1112basic_stringIcSt11char_traitsIcESaIcEEixEm(ptr noundef nonnull align 8 dereferenceable(32) %8, i64 noundef %11)
  %13 = load i8, ptr %12, align 1
  store i8 %13, ptr %3, align 1
  %14 = load i8, ptr %3, align 1
  %15 = sext i8 %14 to i32
  %16 = icmp eq i32 %15, 32
  br i1 %16, label %17, label %18

17:                                               ; preds = %7
  br label %30

18:                                               ; preds = %7
  %19 = load i8, ptr %3, align 1
  %20 = sext i8 %19 to i32
  %21 = icmp ne i32 %20, 10
  br i1 %21, label %22, label %25

22:                                               ; preds = %18
  %23 = getelementptr inbounds %"class.Json::StyledWriter", ptr %4, i32 0, i32 2
  %24 = call noundef nonnull align 8 dereferenceable(32) ptr @_ZNSt7__cxx1112basic_stringIcSt11char_traitsIcESaIcEEpLEc(ptr noundef nonnull align 8 dereferenceable(32) %23, i8 noundef signext 10)
  br label %25

25:                                               ; preds = %22, %18
  br label %26

26:                                               ; preds = %25, %1
  %27 = getelementptr inbounds %"class.Json::StyledWriter", ptr %4, i32 0, i32 3
  %28 = getelementptr inbounds %"class.Json::StyledWriter", ptr %4, i32 0, i32 2
  %29 = call noundef nonnull align 8 dereferenceable(32) ptr @_ZNSt7__cxx1112basic_stringIcSt11char_traitsIcESaIcEEpLERKS4_(ptr noundef nonnull align 8 dereferenceable(32) %28, ptr noundef nonnull align 8 dereferenceable(32) %27)
  br label %30

30:                                               ; preds = %26, %17
  ret void
}